target datalayout = "e-m:e-p270:32:32-p271:32:32-p272:64:64-i64:64-i128:128-f80:128-n8:16:32:64-S128"
target triple = "x86_64-unknown-linux-gnu"

%"class.spacer::model_node" = type <{ %class.ref, ptr, %class.ptr_vector, ptr, ptr, i32, i32, i8, [7 x i8] }>
%class.ref = type { ptr }
%class.ptr_vector = type { %class.vector }
%class.vector = type { ptr }
%"class.spacer::model_search" = type { i8, ptr, ptr, %class.vector.7 }
%class.vector.7 = type { ptr }

; Function Attrs: mustprogress nounwind uwtable
define linkonce_odr hidden noundef ptr @_ZNK6spacer10model_node4nextEv(ptr noundef nonnull align 8 dereferenceable(49) %this) #5 comdat align 2 {
entry:
  %this.addr = alloca ptr, align 8
  store ptr %this, ptr %this.addr, align 8
  %this1 = load ptr, ptr %this.addr, align 8
  %m_next = getelementptr inbounds %"class.spacer::model_node", ptr %this1, i32 0, i32 3
  %0 = load ptr, ptr %m_next, align 8
  ret ptr %0
}

; Function Attrs: mustprogress nounwind uwtable
define hidden void @_ZN6spacer10model_node12insert_afterEPS0_(ptr noundef nonnull align 8 dereferenceable(49) %this, ptr noundef %n) #5 align 2 {
entry:
  %this.addr = alloca ptr, align 8
  %n.addr = alloca ptr, align 8
  store ptr %this, ptr %this.addr, align 8
  store ptr %n, ptr %n.addr, align 8
  %this1 = load ptr, ptr %this.addr, align 8
  %0 = load ptr, ptr %n.addr, align 8
  %cmp = icmp eq ptr %this1, %0
  br i1 %cmp, label %if.then, label %if.else

if.then:                                          ; preds = %entry
  %1 = load ptr, ptr %n.addr, align 8
  %m_next = getelementptr inbounds %"class.spacer::model_node", ptr %this1, i32 0, i32 3
  store ptr %1, ptr %m_next, align 8
  %2 = load ptr, ptr %n.addr, align 8
  %m_prev = getelementptr inbounds %"class.spacer::model_node", ptr %this1, i32 0, i32 4
  store ptr %2, ptr %m_prev, align 8
  br label %if.end

if.else:                                          ; preds = %entry
  %m_next2 = getelementptr inbounds %"class.spacer::model_node", ptr %this1, i32 0, i32 3
  %3 = load ptr, ptr %m_next2, align 8
  %4 = load ptr, ptr %n.addr, align 8
  %m_next3 = getelementptr inbounds %"class.spacer::model_node", ptr %4, i32 0, i32 3
  store ptr %3, ptr %m_next3, align 8
  %5 = load ptr, ptr %n.addr, align 8
  %m_next4 = getelementptr inbounds %"class.spacer::model_node", ptr %this1, i32 0, i32 3
  %6 = load ptr, ptr %m_next4, align 8
  %m_prev5 = getelementptr inbounds %"class.spacer::model_node", ptr %6, i32 0, i32 4
  store ptr %5, ptr %m_prev5, align 8
  %7 = load ptr, ptr %n.addr, align 8
  %m_next6 = getelementptr inbounds %"class.spacer::model_node", ptr %this1, i32 0, i32 3
  store ptr %7, ptr %m_next6, align 8
  %8 = load ptr, ptr %n.addr, align 8
  %m_prev7 = getelementptr inbounds %"class.spacer::model_node", ptr %8, i32 0, i32 4
  store ptr %this1, ptr %m_prev7, align 8
  br label %if.end

if.end:                                           ; preds = %if.else, %if.then
  ret void
}

; Function Attrs: mustprogress uwtable
define hidden void @_ZN6spacer12model_search12enqueue_leafERNS_10model_nodeE(ptr noundef nonnull align 8 dereferenceable(32) %this, ptr noundef nonnull align 8 dereferenceable(49) %n) #4 align 2 {
entry:
  %this.addr = alloca ptr, align 8
  %n.addr = alloca ptr, align 8
  store ptr %this, ptr %this.addr, align 8
  store ptr %n, ptr %n.addr, align 8
  %this1 = load ptr, ptr %this.addr, align 8
  %m_qhead = getelementptr inbounds %"class.spacer::model_search", ptr %this1, i32 0, i32 2
  %0 = load ptr, ptr %m_qhead, align 8
  %tobool = icmp ne ptr %0, null
  br i1 %tobool, label %if.else, label %if.then

if.then:                                          ; preds = %entry
  %1 = load ptr, ptr %n.addr, align 8
  %m_qhead2 = getelementptr inbounds %"class.spacer::model_search", ptr %this1, i32 0, i32 2
  store ptr %1, ptr %m_qhead2, align 8
  %m_qhead3 = getelementptr inbounds %"class.spacer::model_search", ptr %this1, i32 0, i32 2
  %2 = load ptr, ptr %m_qhead3, align 8
  %m_qhead4 = getelementptr inbounds %"class.spacer::model_search", ptr %this1, i32 0, i32 2
  %3 = load ptr, ptr %m_qhead4, align 8
  call void @_ZN6spacer10model_node12insert_afterEPS0_(ptr noundef nonnull align 8 dereferenceable(49) %2, ptr noundef %3)
  br label %if.end10

if.else:                                          ; preds = %entry
  %m_bfs = getelementptr inbounds %"class.spacer::model_search", ptr %this1, i32 0, i32 0
  %4 = load i8, ptr %m_bfs, align 8
  %tobool5 = trunc i8 %4 to i1
  br i1 %tobool5, label %if.then6, label %if.else8

if.then6:                                         ; preds = %if.else
  %m_qhead7 = getelementptr inbounds %"class.spacer::model_search", ptr %this1, i32 0, i32 2
  %5 = load ptr, ptr %m_qhead7, align 8
  %6 = load ptr, ptr %n.addr, align 8
  call void @_ZN6spacer10model_node12insert_afterEPS0_(ptr noundef nonnull align 8 dereferenceable(49) %5, ptr noundef %6)
  br label %if.end

if.else8:                                         ; preds = %if.else
  %m_qhead9 = getelementptr inbounds %"class.spacer::model_search", ptr %this1, i32 0, i32 2
  %7 = load ptr, ptr %m_qhead9, align 8
  %call = call noundef ptr @_ZNK6spacer10model_node4nextEv(ptr noundef nonnull align 8 dereferenceable(49) %7)
  %8 = load ptr, ptr %n.addr, align 8
  call void @_ZN6spacer10model_node12insert_afterEPS0_(ptr noundef nonnull align 8 dereferenceable(49) %call, ptr noundef %8)
  br label %if.end

if.end:                                           ; preds = %if.else8, %if.then6
  br label %if.end10

if.end10:                                         ; preds = %if.end, %if.then
  ret void
}