; Function Attrs: mustprogress nofree norecurse nosync nounwind willreturn memory(readwrite, inaccessiblemem: none) uwtable
define hidden void @_ZN6spacer12model_search12enqueue_leafERNS_10model_nodeE(ptr nocapture noundef nonnull align 8 dereferenceable(32) %this, ptr noundef nonnull align 8 dereferenceable(49) %n) local_unnamed_addr #8 align 2 {
entry:
  %m_qhead = getelementptr inbounds i8, ptr %this, i64 16
  %0 = load ptr, ptr %m_qhead, align 8
  %tobool.not = icmp eq ptr %0, null
  br i1 %tobool.not, label %if.then, label %if.else

if.then:                                          ; preds = %entry
  store ptr %n, ptr %m_qhead, align 8
  %m_next.i = getelementptr inbounds i8, ptr %n, i64 24
  br label %if.end10

if.else:                                          ; preds = %entry
  %1 = load i8, ptr %this, align 8
  %2 = and i8 %1, 1
  %tobool5.not = icmp eq i8 %2, 0
  br i1 %tobool5.not, label %if.else8, label %if.then6

if.then6:                                         ; preds = %if.else
  %cmp.i = icmp eq ptr %0, %n
  %m_next.i3 = getelementptr inbounds i8, ptr %0, i64 24
  br i1 %cmp.i, label %if.end10, label %if.else.i

if.else.i:                                        ; preds = %if.then6
  %3 = load ptr, ptr %m_next.i3, align 8
  %m_next3.i = getelementptr inbounds i8, ptr %n, i64 24
  store ptr %3, ptr %m_next3.i, align 8
  %m_prev5.i = getelementptr inbounds i8, ptr %3, i64 32
  store ptr %n, ptr %m_prev5.i, align 8
  br label %if.end10

if.else8:                                         ; preds = %if.else
  %m_next.i5 = getelementptr inbounds i8, ptr %0, i64 24
  %4 = load ptr, ptr %m_next.i5, align 8
  %cmp.i6 = icmp eq ptr %4, %n
  %m_next.i7 = getelementptr inbounds i8, ptr %4, i64 24
  br i1 %cmp.i6, label %if.end10, label %if.else.i8

if.else.i8:                                       ; preds = %if.else8
  %5 = load ptr, ptr %m_next.i7, align 8
  %m_next3.i9 = getelementptr inbounds i8, ptr %n, i64 24
  store ptr %5, ptr %m_next3.i9, align 8
  %m_prev5.i10 = getelementptr inbounds i8, ptr %5, i64 32
  store ptr %n, ptr %m_prev5.i10, align 8
  br label %if.end10

if.end10:                                         ; preds = %if.else.i8, %if.else8, %if.else.i, %if.then6, %if.then
  %m_next.i3.sink = phi ptr [ %m_next.i, %if.then ], [ %m_next.i3, %if.then6 ], [ %m_next.i3, %if.else.i ], [ %m_next.i7, %if.else8 ], [ %m_next.i7, %if.else.i8 ]
  %.sink = phi ptr [ %n, %if.then ], [ %0, %if.then6 ], [ %0, %if.else.i ], [ %4, %if.else8 ], [ %4, %if.else.i8 ]
  store ptr %n, ptr %m_next.i3.sink, align 8
  %m_prev7.i4 = getelementptr inbounds i8, ptr %n, i64 32
  store ptr %.sink, ptr %m_prev7.i4, align 8
  ret void
}